; Function Attrs: mustprogress nofree norecurse nosync nounwind willreturn memory(argmem: readwrite) uwtable
define dso_local range(i64 -60, 1) i64 @ZSTD_referenceExternalSequences(ptr noundef captures(none) %0, ptr noundef %1, i64 noundef %2) local_unnamed_addr #7 {
  %4 = load i32, ptr %0, align 8
  %.not = icmp eq i32 %4, 1
  br i1 %.not, label %5, label %14

5:                                                ; preds = %3
  %6 = getelementptr inbounds nuw i8, ptr %0, i64 320
  %7 = load i32, ptr %6, align 8
  %8 = icmp eq i32 %7, 1
  br i1 %8, label %14, label %9

9:                                                ; preds = %5
  %10 = getelementptr inbounds nuw i8, ptr %0, i64 3136
  store ptr %1, ptr %10, align 8
  %11 = getelementptr inbounds nuw i8, ptr %0, i64 3160
  store i64 %2, ptr %11, align 8
  %12 = getelementptr inbounds nuw i8, ptr %0, i64 3168
  store i64 %2, ptr %12, align 8
  %13 = getelementptr inbounds nuw i8, ptr %0, i64 3144
  tail call void @llvm.memset.p0.i64(ptr noundef nonnull align 8 dereferenceable(16) %13, i8 0, i64 16, i1 false)
  br label %14

14:                                               ; preds = %5, %3, %9
  %.0 = phi i64 [ 0, %9 ], [ -60, %3 ], [ -40, %5 ]
  ret i64 %.0
}